target datalayout = "e-m:e-p270:32:32-p271:32:32-p272:64:64-i64:64-i128:128-f80:128-n8:16:32:64-S128"
target triple = "x86_64-pc-linux-gnu"

; Function Attrs: mustprogress nounwind uwtable
define i32 @u_getUnicodeProperties_77(i32 noundef %0, i32 noundef %1) #0 {
  %3 = alloca i32, align 4
  %4 = alloca i32, align 4
  %5 = alloca i32, align 4
  %6 = alloca i16, align 2
  store i32 %0, ptr %4, align 4, !tbaa !3
  store i32 %1, ptr %5, align 4, !tbaa !3
  %7 = load i32, ptr %5, align 4, !tbaa !3
  %8 = icmp sge i32 %7, 3
  br i1 %8, label %9, label %10

9:                                                ; preds = %2
  store i32 0, ptr %3, align 4
  br label %94

10:                                               ; preds = %2
  call void @llvm.lifetime.start.p0(i64 2, ptr %6) #6
  %11 = load ptr, ptr @_ZL16propsVectorsTrie, align 8, !tbaa !7
  %12 = load i32, ptr %4, align 4, !tbaa !3
  %13 = icmp ult i32 %12, 55296
  br i1 %13, label %14, label %27

14:                                               ; preds = %10
  %15 = load ptr, ptr @_ZL16propsVectorsTrie, align 8, !tbaa !7
  %16 = load i32, ptr %4, align 4, !tbaa !3
  %17 = ashr i32 %16, 5
  %18 = add nsw i32 0, %17
  %19 = sext i32 %18 to i64
  %20 = getelementptr inbounds i16, ptr %15, i64 %19
  %21 = load i16, ptr %20, align 2, !tbaa !14
  %22 = zext i16 %21 to i32
  %23 = shl i32 %22, 2
  %24 = load i32, ptr %4, align 4, !tbaa !3
  %25 = and i32 %24, 31
  %26 = add nsw i32 %23, %25
  br label %82

27:                                               ; preds = %10
  %28 = load i32, ptr %4, align 4, !tbaa !3
  %29 = icmp ule i32 %28, 65535
  br i1 %29, label %30, label %46

30:                                               ; preds = %27
  %31 = load ptr, ptr @_ZL16propsVectorsTrie, align 8, !tbaa !7
  %32 = load i32, ptr %4, align 4, !tbaa !3
  %33 = icmp sle i32 %32, 56319
  %34 = select i1 %33, i32 320, i32 0
  %35 = load i32, ptr %4, align 4, !tbaa !3
  %36 = ashr i32 %35, 5
  %37 = add nsw i32 %34, %36
  %38 = sext i32 %37 to i64
  %39 = getelementptr inbounds i16, ptr %31, i64 %38
  %40 = load i16, ptr %39, align 2, !tbaa !14
  %41 = zext i16 %40 to i32
  %42 = shl i32 %41, 2
  %43 = load i32, ptr %4, align 4, !tbaa !3
  %44 = and i32 %43, 31
  %45 = add nsw i32 %42, %44
  br label %80

46:                                               ; preds = %27
  %47 = load i32, ptr %4, align 4, !tbaa !3
  %48 = icmp ugt i32 %47, 1114111
  br i1 %48, label %49, label %50

49:                                               ; preds = %46
  br label %78

50:                                               ; preds = %46
  %51 = load i32, ptr %4, align 4, !tbaa !3
  %52 = icmp sge i32 %51, 1114112
  br i1 %52, label %53, label %54

53:                                               ; preds = %50
  br label %76

54:                                               ; preds = %50
  %55 = load ptr, ptr @_ZL16propsVectorsTrie, align 8, !tbaa !7
  %56 = load ptr, ptr @_ZL16propsVectorsTrie, align 8, !tbaa !7
  %57 = load i32, ptr %4, align 4, !tbaa !3
  %58 = ashr i32 %57, 11
  %59 = add nsw i32 2080, %58
  %60 = sext i32 %59 to i64
  %61 = getelementptr inbounds i16, ptr %56, i64 %60
  %62 = load i16, ptr %61, align 2, !tbaa !14
  %63 = zext i16 %62 to i32
  %64 = load i32, ptr %4, align 4, !tbaa !3
  %65 = ashr i32 %64, 5
  %66 = and i32 %65, 63
  %67 = add nsw i32 %63, %66
  %68 = sext i32 %67 to i64
  %69 = getelementptr inbounds i16, ptr %55, i64 %68
  %70 = load i16, ptr %69, align 2, !tbaa !14
  %71 = zext i16 %70 to i32
  %72 = shl i32 %71, 2
  %73 = load i32, ptr %4, align 4, !tbaa !3
  %74 = and i32 %73, 31
  %75 = add nsw i32 %72, %74
  br label %76

76:                                               ; preds = %54, %53
  %77 = phi i32 [ 32320, %53 ], [ %75, %54 ]
  br label %78

78:                                               ; preds = %76, %49
  %79 = phi i32 [ 5364, %49 ], [ %77, %76 ]
  br label %80

80:                                               ; preds = %78, %30
  %81 = phi i32 [ %45, %30 ], [ %79, %78 ]
  br label %82

82:                                               ; preds = %80, %14
  %83 = phi i32 [ %26, %14 ], [ %81, %80 ]
  %84 = sext i32 %83 to i64
  %85 = getelementptr inbounds i16, ptr %11, i64 %84
  %86 = load i16, ptr %85, align 2, !tbaa !14
  store i16 %86, ptr %6, align 2, !tbaa !14
  %87 = load i16, ptr %6, align 2, !tbaa !14
  %88 = zext i16 %87 to i32
  %89 = load i32, ptr %5, align 4, !tbaa !3
  %90 = add nsw i32 %88, %89
  %91 = sext i32 %90 to i64
  %92 = getelementptr inbounds [6426 x i32], ptr @_ZL12propsVectors, i64 0, i64 %91
  %93 = load i32, ptr %92, align 4, !tbaa !3
  store i32 %93, ptr %3, align 4
  call void @llvm.lifetime.end.p0(i64 2, ptr %6) #6
  br label %94

94:                                               ; preds = %82, %9
  %95 = load i32, ptr %3, align 4
  ret i32 %95
}

; Function Attrs: mustprogress nounwind uwtable
define signext i8 @uscript_hasScript_77(i32 noundef %0, i32 noundef %1) #0 {
  %3 = alloca i8, align 1
  %4 = alloca i32, align 4
  %5 = alloca i32, align 4
  %6 = alloca i32, align 4
  %7 = alloca i32, align 4
  %8 = alloca i32, align 4
  %9 = alloca ptr, align 8
  %10 = alloca i32, align 4
  store i32 %0, ptr %4, align 4, !tbaa !3
  store i32 %1, ptr %5, align 4, !tbaa !28
  call void @llvm.lifetime.start.p0(i64 4, ptr %6) #6
  %11 = load i32, ptr %4, align 4, !tbaa !3
  %12 = call i32 @u_getUnicodeProperties_77(i32 noundef %11, i32 noundef 0)
  %13 = and i32 %12, 4095
  store i32 %13, ptr %6, align 4, !tbaa !3
  call void @llvm.lifetime.start.p0(i64 4, ptr %7) #6
  %14 = load i32, ptr %6, align 4, !tbaa !3
  %15 = and i32 %14, 1023
  store i32 %15, ptr %7, align 4, !tbaa !3
  %16 = load i32, ptr %6, align 4, !tbaa !3
  %17 = icmp ult i32 %16, 1024
  br i1 %17, label %18, label %23

18:                                               ; preds = %2
  %19 = load i32, ptr %5, align 4, !tbaa !28
  %20 = load i32, ptr %7, align 4, !tbaa !3
  %21 = icmp eq i32 %19, %20
  %22 = zext i1 %21 to i8
  store i8 %22, ptr %3, align 1
  store i32 1, ptr %8, align 4
  br label %60

23:                                               ; preds = %2
  call void @llvm.lifetime.start.p0(i64 8, ptr %9) #6
  %24 = load i32, ptr %7, align 4, !tbaa !3
  %25 = zext i32 %24 to i64
  %26 = getelementptr inbounds nuw i16, ptr @_ZL16scriptExtensions, i64 %25
  store ptr %26, ptr %9, align 8, !tbaa !30
  %27 = load i32, ptr %6, align 4, !tbaa !3
  %28 = icmp uge i32 %27, 3072
  br i1 %28, label %29, label %36

29:                                               ; preds = %23
  %30 = load ptr, ptr %9, align 8, !tbaa !30
  %31 = getelementptr inbounds i16, ptr %30, i64 1
  %32 = load i16, ptr %31, align 2, !tbaa !14
  %33 = zext i16 %32 to i32
  %34 = sext i32 %33 to i64
  %35 = getelementptr inbounds i16, ptr @_ZL16scriptExtensions, i64 %34
  store ptr %35, ptr %9, align 8, !tbaa !30
  br label %36

36:                                               ; preds = %29, %23
  call void @llvm.lifetime.start.p0(i64 4, ptr %10) #6
  %37 = load i32, ptr %5, align 4, !tbaa !28
  store i32 %37, ptr %10, align 4, !tbaa !3
  %38 = load i32, ptr %10, align 4, !tbaa !3
  %39 = icmp ugt i32 %38, 32767
  br i1 %39, label %40, label %41

40:                                               ; preds = %36
  store i8 0, ptr %3, align 1
  store i32 1, ptr %8, align 4
  br label %59

41:                                               ; preds = %36
  br label %42

42:                                               ; preds = %48, %41
  %43 = load i32, ptr %10, align 4, !tbaa !3
  %44 = load ptr, ptr %9, align 8, !tbaa !30
  %45 = load i16, ptr %44, align 2, !tbaa !14
  %46 = zext i16 %45 to i32
  %47 = icmp ugt i32 %43, %46
  br i1 %47, label %48, label %51

48:                                               ; preds = %42
  %49 = load ptr, ptr %9, align 8, !tbaa !30
  %50 = getelementptr inbounds nuw i16, ptr %49, i32 1
  store ptr %50, ptr %9, align 8, !tbaa !30
  br label %42, !llvm.loop !31

51:                                               ; preds = %42
  %52 = load i32, ptr %10, align 4, !tbaa !3
  %53 = load ptr, ptr %9, align 8, !tbaa !30
  %54 = load i16, ptr %53, align 2, !tbaa !14
  %55 = zext i16 %54 to i32
  %56 = and i32 %55, 32767
  %57 = icmp eq i32 %52, %56
  %58 = zext i1 %57 to i8
  store i8 %58, ptr %3, align 1
  store i32 1, ptr %8, align 4
  br label %59

59:                                               ; preds = %51, %40
  call void @llvm.lifetime.end.p0(i64 4, ptr %10) #6
  call void @llvm.lifetime.end.p0(i64 8, ptr %9) #6
  br label %60

60:                                               ; preds = %59, %18
  call void @llvm.lifetime.end.p0(i64 4, ptr %7) #6
  call void @llvm.lifetime.end.p0(i64 4, ptr %6) #6
  %61 = load i8, ptr %3, align 1
  ret i8 %61
}