; Function Attrs: mustprogress nofree norecurse nosync nounwind willreturn memory(none) uwtable
define signext range(i8 0, 2) i8 @uscript_hasScript_77(i32 noundef %0, i32 noundef %1) local_unnamed_addr #0 {
  %3 = icmp ult i32 %0, 55296
  br i1 %3, label %4, label %6

4:                                                ; preds = %2
  %5 = lshr i32 %0, 5
  br label %.sink.split.i

6:                                                ; preds = %2
  %7 = icmp ult i32 %0, 65536
  br i1 %7, label %8, label %13

8:                                                ; preds = %6
  %9 = icmp samesign ult i32 %0, 56320
  %10 = select i1 %9, i32 320, i32 0
  %11 = lshr i32 %0, 5
  %12 = add nuw nsw i32 %10, %11
  br label %.sink.split.i

13:                                               ; preds = %6
  %14 = icmp ugt i32 %0, 1114111
  br i1 %14, label %u_getUnicodeProperties_77.exit, label %15

15:                                               ; preds = %13
  %16 = lshr i32 %0, 11
  %17 = zext nneg i32 %16 to i64
  %18 = getelementptr inbounds nuw i16, ptr @_ZL22propsVectorsTrie_index, i64 %17
  %19 = getelementptr inbounds nuw i8, ptr %18, i64 4160
  %20 = load i16, ptr %19, align 2, !tbaa !3
  %21 = zext i16 %20 to i32
  %22 = lshr i32 %0, 5
  %23 = and i32 %22, 63
  %24 = add nuw nsw i32 %23, %21
  br label %.sink.split.i

.sink.split.i:                                    ; preds = %15, %8, %4
  %.sink21.i = phi i32 [ %12, %8 ], [ %24, %15 ], [ %5, %4 ]
  %25 = zext nneg i32 %.sink21.i to i64
  %26 = getelementptr inbounds nuw i16, ptr @_ZL22propsVectorsTrie_index, i64 %25
  %27 = load i16, ptr %26, align 2, !tbaa !3
  %28 = zext i16 %27 to i32
  %29 = shl nuw nsw i32 %28, 2
  %30 = and i32 %0, 31
  %31 = add nuw nsw i32 %29, %30
  %32 = zext nneg i32 %31 to i64
  br label %u_getUnicodeProperties_77.exit

u_getUnicodeProperties_77.exit:                   ; preds = %13, %.sink.split.i
  %33 = phi i64 [ 5364, %13 ], [ %32, %.sink.split.i ]
  %34 = getelementptr inbounds nuw i16, ptr @_ZL22propsVectorsTrie_index, i64 %33
  %35 = load i16, ptr %34, align 2, !tbaa !3
  %36 = zext i16 %35 to i64
  %37 = getelementptr inbounds nuw [6426 x i32], ptr @_ZL12propsVectors, i64 0, i64 %36
  %38 = load i32, ptr %37, align 4, !tbaa !11
  %39 = and i32 %38, 4095
  %40 = and i32 %38, 1023
  %41 = icmp samesign ult i32 %39, 1024
  br i1 %41, label %42, label %44

42:                                               ; preds = %u_getUnicodeProperties_77.exit
  %43 = icmp eq i32 %1, %40
  br label %62

44:                                               ; preds = %u_getUnicodeProperties_77.exit
  %45 = zext nneg i32 %40 to i64
  %46 = getelementptr inbounds nuw i16, ptr @_ZL16scriptExtensions, i64 %45
  %47 = icmp samesign ugt i32 %39, 3071
  br i1 %47, label %48, label %53

48:                                               ; preds = %44
  %49 = getelementptr inbounds nuw i8, ptr %46, i64 2
  %50 = load i16, ptr %49, align 2, !tbaa !3
  %51 = zext i16 %50 to i64
  %52 = getelementptr inbounds nuw i16, ptr @_ZL16scriptExtensions, i64 %51
  br label %53

53:                                               ; preds = %48, %44
  %.015 = phi ptr [ %52, %48 ], [ %46, %44 ]
  %54 = icmp ugt i32 %1, 32767
  br i1 %54, label %62, label %.preheader

.preheader:                                       ; preds = %53, %.preheader
  %.116 = phi ptr [ %58, %.preheader ], [ %.015, %53 ]
  %55 = load i16, ptr %.116, align 2, !tbaa !3
  %56 = zext i16 %55 to i32
  %57 = icmp samesign ugt i32 %1, %56
  %58 = getelementptr inbounds nuw i8, ptr %.116, i64 2
  br i1 %57, label %.preheader, label %59, !llvm.loop !18

59:                                               ; preds = %.preheader
  %60 = and i32 %56, 32767
  %61 = icmp eq i32 %1, %60
  br label %62

62:                                               ; preds = %59, %53, %42
  %.0.shrunk = phi i1 [ %43, %42 ], [ %61, %59 ], [ false, %53 ]
  %.0 = zext i1 %.0.shrunk to i8
  ret i8 %.0
}